; Function Attrs: nounwind uwtable
define noalias noundef ptr @Vec_WrdInterleave(ptr noundef readonly captures(none) %0, ptr noundef readonly captures(none) %1, i32 noundef %2, i32 noundef %3) local_unnamed_addr #2 {
  %5 = getelementptr i8, ptr %0, i64 4
  %.val25 = load i32, ptr %5, align 4
  %6 = getelementptr i8, ptr %1, i64 4
  %.val26 = load i32, ptr %6, align 4
  %7 = add nsw i32 %.val26, %.val25
  %8 = tail call noalias dereferenceable_or_null(16) ptr @malloc(i64 noundef 16) #40
  %9 = add i32 %7, -1
  %or.cond.i = icmp ult i32 %9, 15
  %spec.store.select.i = select i1 %or.cond.i, i32 16, i32 %7
  %10 = getelementptr inbounds nuw i8, ptr %8, i64 4
  store i32 0, ptr %10, align 4
  store i32 %spec.store.select.i, ptr %8, align 8
  %.not.i = icmp eq i32 %spec.store.select.i, 0
  br i1 %.not.i, label %Vec_WrdAlloc.exit, label %11

11:                                               ; preds = %4
  %12 = sext i32 %spec.store.select.i to i64
  %13 = shl nsw i64 %12, 3
  %14 = tail call noalias ptr @malloc(i64 noundef %13) #40
  br label %Vec_WrdAlloc.exit

Vec_WrdAlloc.exit:                                ; preds = %4, %11
  %15 = phi ptr [ %14, %11 ], [ null, %4 ]
  %16 = getelementptr inbounds nuw i8, ptr %8, i64 8
  store ptr %15, ptr %16, align 8
  %17 = icmp sgt i32 %3, 0
  br i1 %17, label %.preheader34.lr.ph, label %._crit_edge39

.preheader34.lr.ph:                               ; preds = %Vec_WrdAlloc.exit
  %18 = icmp sgt i32 %2, 0
  %19 = getelementptr i8, ptr %0, i64 8
  %20 = getelementptr i8, ptr %1, i64 8
  %21 = zext i32 %2 to i64
  %wide.trip.count49 = zext nneg i32 %3 to i64
  br label %.preheader34

.preheader34:                                     ; preds = %.preheader34.lr.ph, %._crit_edge
  %indvars.iv46 = phi i64 [ 0, %.preheader34.lr.ph ], [ %indvars.iv.next47, %._crit_edge ]
  br i1 %18, label %.lr.ph, label %._crit_edge

.lr.ph:                                           ; preds = %.preheader34
  %22 = mul nuw nsw i64 %indvars.iv46, %21
  br label %24

.lr.ph37:                                         ; preds = %Vec_WrdPush.exit
  %23 = mul nuw nsw i64 %indvars.iv46, %21
  br label %55

24:                                               ; preds = %.lr.ph, %Vec_WrdPush.exit
  %indvars.iv = phi i64 [ 0, %.lr.ph ], [ %indvars.iv.next, %Vec_WrdPush.exit ]
  %.val24 = load ptr, ptr %19, align 8
  %25 = getelementptr inbounds nuw i64, ptr %.val24, i64 %indvars.iv
  %26 = getelementptr inbounds nuw i64, ptr %25, i64 %22
  %27 = load i64, ptr %26, align 8
  %28 = load i32, ptr %10, align 4
  %29 = load i32, ptr %8, align 8
  %30 = icmp eq i32 %28, %29
  br i1 %30, label %31, label %.Vec_WrdGrow.exit10_crit_edge.i

.Vec_WrdGrow.exit10_crit_edge.i:                  ; preds = %24
  %.pre.i = load ptr, ptr %16, align 8
  br label %Vec_WrdPush.exit

31:                                               ; preds = %24
  %32 = icmp slt i32 %28, 16
  br i1 %32, label %33, label %40

33:                                               ; preds = %31
  %34 = load ptr, ptr %16, align 8
  %.not9.i.i = icmp eq ptr %34, null
  br i1 %.not9.i.i, label %37, label %35

35:                                               ; preds = %33
  %36 = tail call dereferenceable_or_null(128) ptr @realloc(ptr noundef nonnull %34, i64 noundef 128) #39
  br label %Vec_WrdGrow.exit.i

37:                                               ; preds = %33
  %38 = tail call noalias dereferenceable_or_null(128) ptr @malloc(i64 noundef 128) #40
  br label %Vec_WrdGrow.exit.i

Vec_WrdGrow.exit.i:                               ; preds = %37, %35
  %39 = phi ptr [ %36, %35 ], [ %38, %37 ]
  store ptr %39, ptr %16, align 8
  store i32 16, ptr %8, align 8
  br label %Vec_WrdPush.exit

40:                                               ; preds = %31
  %41 = shl nuw nsw i32 %28, 1
  %42 = load ptr, ptr %16, align 8
  %.not9.i9.i = icmp eq ptr %42, null
  %43 = zext nneg i32 %41 to i64
  %44 = shl nuw nsw i64 %43, 3
  br i1 %.not9.i9.i, label %47, label %45

45:                                               ; preds = %40
  %46 = tail call ptr @realloc(ptr noundef nonnull %42, i64 noundef %44) #39
  br label %49

47:                                               ; preds = %40
  %48 = tail call noalias ptr @malloc(i64 noundef %44) #40
  br label %49

49:                                               ; preds = %47, %45
  %50 = phi ptr [ %46, %45 ], [ %48, %47 ]
  store ptr %50, ptr %16, align 8
  store i32 %41, ptr %8, align 8
  br label %Vec_WrdPush.exit

Vec_WrdPush.exit:                                 ; preds = %.Vec_WrdGrow.exit10_crit_edge.i, %Vec_WrdGrow.exit.i, %49
  %51 = phi ptr [ %.pre.i, %.Vec_WrdGrow.exit10_crit_edge.i ], [ %50, %49 ], [ %39, %Vec_WrdGrow.exit.i ]
  %52 = add nsw i32 %28, 1
  store i32 %52, ptr %10, align 4
  %53 = sext i32 %28 to i64
  %54 = getelementptr inbounds i64, ptr %51, i64 %53
  store i64 %27, ptr %54, align 8
  %indvars.iv.next = add nuw nsw i64 %indvars.iv, 1
  %exitcond.not = icmp eq i64 %indvars.iv.next, %21
  br i1 %exitcond.not, label %.lr.ph37, label %24, !llvm.loop !155

55:                                               ; preds = %.lr.ph37, %Vec_WrdPush.exit33
  %indvars.iv41 = phi i64 [ 0, %.lr.ph37 ], [ %indvars.iv.next42, %Vec_WrdPush.exit33 ]
  %.val = load ptr, ptr %20, align 8
  %56 = getelementptr inbounds nuw i64, ptr %.val, i64 %indvars.iv41
  %57 = getelementptr inbounds nuw i64, ptr %56, i64 %23
  %58 = load i64, ptr %57, align 8
  %59 = load i32, ptr %10, align 4
  %60 = load i32, ptr %8, align 8
  %61 = icmp eq i32 %59, %60
  br i1 %61, label %62, label %.Vec_WrdGrow.exit10_crit_edge.i27

.Vec_WrdGrow.exit10_crit_edge.i27:                ; preds = %55
  %.pre.i29 = load ptr, ptr %16, align 8
  br label %Vec_WrdPush.exit33

62:                                               ; preds = %55
  %63 = icmp slt i32 %59, 16
  br i1 %63, label %64, label %71

64:                                               ; preds = %62
  %65 = load ptr, ptr %16, align 8
  %.not9.i.i31 = icmp eq ptr %65, null
  br i1 %.not9.i.i31, label %68, label %66

66:                                               ; preds = %64
  %67 = tail call dereferenceable_or_null(128) ptr @realloc(ptr noundef nonnull %65, i64 noundef 128) #39
  br label %Vec_WrdGrow.exit.i32

68:                                               ; preds = %64
  %69 = tail call noalias dereferenceable_or_null(128) ptr @malloc(i64 noundef 128) #40
  br label %Vec_WrdGrow.exit.i32

Vec_WrdGrow.exit.i32:                             ; preds = %68, %66
  %70 = phi ptr [ %67, %66 ], [ %69, %68 ]
  store ptr %70, ptr %16, align 8
  store i32 16, ptr %8, align 8
  br label %Vec_WrdPush.exit33

71:                                               ; preds = %62
  %72 = shl nuw nsw i32 %59, 1
  %73 = load ptr, ptr %16, align 8
  %.not9.i9.i30 = icmp eq ptr %73, null
  %74 = zext nneg i32 %72 to i64
  %75 = shl nuw nsw i64 %74, 3
  br i1 %.not9.i9.i30, label %78, label %76

76:                                               ; preds = %71
  %77 = tail call ptr @realloc(ptr noundef nonnull %73, i64 noundef %75) #39
  br label %80

78:                                               ; preds = %71
  %79 = tail call noalias ptr @malloc(i64 noundef %75) #40
  br label %80

80:                                               ; preds = %78, %76
  %81 = phi ptr [ %77, %76 ], [ %79, %78 ]
  store ptr %81, ptr %16, align 8
  store i32 %72, ptr %8, align 8
  br label %Vec_WrdPush.exit33

Vec_WrdPush.exit33:                               ; preds = %.Vec_WrdGrow.exit10_crit_edge.i27, %Vec_WrdGrow.exit.i32, %80
  %82 = phi ptr [ %.pre.i29, %.Vec_WrdGrow.exit10_crit_edge.i27 ], [ %81, %80 ], [ %70, %Vec_WrdGrow.exit.i32 ]
  %83 = add nsw i32 %59, 1
  store i32 %83, ptr %10, align 4
  %84 = sext i32 %59 to i64
  %85 = getelementptr inbounds i64, ptr %82, i64 %84
  store i64 %58, ptr %85, align 8
  %indvars.iv.next42 = add nuw nsw i64 %indvars.iv41, 1
  %exitcond45.not = icmp eq i64 %indvars.iv.next42, %21
  br i1 %exitcond45.not, label %._crit_edge, label %55, !llvm.loop !156

._crit_edge:                                      ; preds = %Vec_WrdPush.exit33, %.preheader34
  %indvars.iv.next47 = add nuw nsw i64 %indvars.iv46, 1
  %exitcond50.not = icmp eq i64 %indvars.iv.next47, %wide.trip.count49
  br i1 %exitcond50.not, label %._crit_edge39, label %.preheader34, !llvm.loop !157

._crit_edge39:                                    ; preds = %._crit_edge, %Vec_WrdAlloc.exit
  ret ptr %8
}